target datalayout = "e-m:e-p270:32:32-p271:32:32-p272:64:64-i64:64-i128:128-f80:128-n8:16:32:64-S128"
target triple = "x86_64-unknown-linux-gnu"

; Function Attrs: mustprogress nounwind uwtable
define internal noundef signext i8 @_ZL9U_FAILURE10UErrorCode(i32 noundef %code) #0 {
entry:
  %code.addr = alloca i32, align 4
  store i32 %code, ptr %code.addr, align 4
  %0 = load i32, ptr %code.addr, align 4
  %cmp = icmp sgt i32 %0, 0
  %conv = zext i1 %cmp to i8
  ret i8 %conv
}

; Function Attrs: mustprogress uwtable
define void @ucal_setDateTime_75(ptr noundef %cal, i32 noundef %year, i32 noundef %month, i32 noundef %date, i32 noundef %hour, i32 noundef %minute, i32 noundef %second, ptr noundef %status) #1 {
entry:
  %cal.addr = alloca ptr, align 8
  %year.addr = alloca i32, align 4
  %month.addr = alloca i32, align 4
  %date.addr = alloca i32, align 4
  %hour.addr = alloca i32, align 4
  %minute.addr = alloca i32, align 4
  %second.addr = alloca i32, align 4
  %status.addr = alloca ptr, align 8
  store ptr %cal, ptr %cal.addr, align 8
  store i32 %year, ptr %year.addr, align 4
  store i32 %month, ptr %month.addr, align 4
  store i32 %date, ptr %date.addr, align 4
  store i32 %hour, ptr %hour.addr, align 4
  store i32 %minute, ptr %minute.addr, align 4
  store i32 %second, ptr %second.addr, align 4
  store ptr %status, ptr %status.addr, align 8
  %0 = load ptr, ptr %status.addr, align 8
  %1 = load i32, ptr %0, align 4
  %call = call noundef signext i8 @_ZL9U_FAILURE10UErrorCode(i32 noundef %1)
  %tobool = icmp ne i8 %call, 0
  br i1 %tobool, label %if.then, label %if.end

if.then:                                          ; preds = %entry
  br label %return

if.end:                                           ; preds = %entry
  %2 = load ptr, ptr %cal.addr, align 8
  %3 = load i32, ptr %year.addr, align 4
  %4 = load i32, ptr %month.addr, align 4
  %5 = load i32, ptr %date.addr, align 4
  %6 = load i32, ptr %hour.addr, align 4
  %7 = load i32, ptr %minute.addr, align 4
  %8 = load i32, ptr %second.addr, align 4
  call void @_ZN6icu_758Calendar3setEiiiiii(ptr noundef nonnull align 8 dereferenceable(618) %2, i32 noundef %3, i32 noundef %4, i32 noundef %5, i32 noundef %6, i32 noundef %7, i32 noundef %8)
  br label %return

return:                                           ; preds = %if.end, %if.then
  ret void
}