; Function Attrs: mustprogress uwtable
define void @ucal_setDateTime_75(ptr noundef %cal, i32 noundef %year, i32 noundef %month, i32 noundef %date, i32 noundef %hour, i32 noundef %minute, i32 noundef %second, ptr nocapture noundef readonly %status) local_unnamed_addr #1 {
entry:
  %0 = load i32, ptr %status, align 4
  %cmp.i = icmp slt i32 %0, 1
  br i1 %cmp.i, label %if.end, label %return

if.end:                                           ; preds = %entry
  tail call void @_ZN6icu_758Calendar3setEiiiiii(ptr noundef nonnull align 8 dereferenceable(618) %cal, i32 noundef %year, i32 noundef %month, i32 noundef %date, i32 noundef %hour, i32 noundef %minute, i32 noundef %second)
  br label %return

return:                                           ; preds = %entry, %if.end
  ret void
}